Certificate:
    Data:
        Version: 3 (0x2)
        Serial Number: 4097 (0x1001)
    Signature Algorithm: sha256WithRSAEncryption
        Issuer: C=MK, ST=Macedonia, O=FINKI, CN=borce.velkov@students.finki.ukim.mk
        Validity
            Not Before: Jan 30 19:38:29 2019 GMT
            Not After : Feb  9 19:38:29 2020 GMT
        Subject: C=MK, ST=Macedonia, O=FINKI, OU=G7, CN=G7/emailAddress=borce.velkov@students.finki.ukim.mk
        Subject Public Key Info:
            Public Key Algorithm: rsaEncryption
                Public-Key: (2048 bit)
                Modulus:
                    00:a3:f8:e8:56:65:31:72:d7:9e:dd:73:fc:e7:57:
                    6e:6c:e7:54:09:bc:3c:c5:c6:ff:e7:b3:48:b6:94:
                    4e:91:65:74:75:2b:61:db:10:f9:f1:52:6d:44:ec:
                    4b:dc:b1:99:c0:dd:96:16:7e:81:b1:af:da:bd:62:
                    0c:e7:70:0d:04:c4:8c:4c:63:00:04:1b:49:9b:ff:
                    15:49:4f:f2:c7:ad:e9:58:3c:17:41:c9:55:4f:b2:
                    c9:30:f7:32:76:5a:f6:3e:86:80:c0:41:1a:9b:b5:
                    a3:ff:ed:69:83:49:39:a4:aa:5e:23:6b:15:c4:68:
                    83:7c:b6:cc:f3:32:af:1c:a9:a3:6e:35:3f:64:b3:
                    6e:27:1b:25:da:8d:c3:20:82:83:c6:71:11:74:0f:
                    3f:db:7c:db:a5:46:a2:b0:ce:c5:fb:cd:9e:91:4a:
                    d5:2d:ea:33:ee:cf:d6:c9:24:b1:7f:93:4b:41:b9:
                    d7:ee:57:b5:a7:72:ca:11:5e:0d:39:ae:0f:7c:e7:
                    dc:af:e4:e2:83:e3:aa:06:be:c1:b1:cf:2f:61:3b:
                    50:9a:1d:d2:07:39:e4:7c:8f:5e:c5:35:48:51:61:
                    5c:8d:0b:16:09:65:87:a4:5f:e8:12:5a:97:22:c5:
                    81:ad:76:92:8f:20:3c:59:e3:c9:ce:31:da:53:ba:
                    81:1d
                Exponent: 65537 (0x10001)
        X509v3 extensions:
            X509v3 Basic Constraints: 
                CA:FALSE
            Netscape Cert Type: 
                SSL Server
            Netscape Comment: 
                OpenSSL Generated Server Certificate
            X509v3 Subject Key Identifier: 
                F1:2C:B2:C1:B7:A2:19:4B:49:D2:E3:04:6F:19:72:CD:F1:1A:7F:BE
            X509v3 Authority Key Identifier: 
                keyid:E0:1F:78:C3:74:74:05:55:7B:2B:4D:DD:63:66:60:0E:77:80:FB:25
                DirName:/C=MK/ST=Macedonia/O=FINKI/OU=FINKI Certificate Authority/CN=BNKS Intemediate CA
                serial:10:01

            X509v3 Key Usage: critical
                Digital Signature, Key Encipherment
            X509v3 Extended Key Usage: 
                TLS Web Server Authentication
            X509v3 Subject Alternative Name: 
                DNS:localhost
    Signature Algorithm: sha256WithRSAEncryption
         64:50:b7:4e:25:51:27:a0:9a:71:a4:78:eb:dd:cf:6c:7c:ed:
         71:cc:ea:ad:8b:3b:69:99:01:ac:56:8a:cd:f2:53:79:b0:58:
         82:fd:50:3d:0a:14:5e:57:cd:a6:e4:58:be:82:09:41:79:1a:
         19:ba:04:07:df:62:e7:ad:9f:f4:80:fe:eb:64:b4:a9:92:e1:
         22:d0:96:4a:8c:9e:00:a0:a6:6d:e2:da:35:71:66:26:b9:75:
         b0:b6:8a:c6:64:53:7a:ec:94:28:3c:56:f2:5a:32:af:9d:7b:
         84:18:f3:30:33:10:15:92:db:2a:f9:c8:0a:33:6f:3f:17:4b:
         e4:d0:d8:f5:e0:91:fb:0c:52:e3:ff:ef:0d:01:33:e7:50:49:
         a2:7e:0f:ae:a4:c3:b7:bc:23:ad:40:5f:9f:46:70:e7:ac:99:
         1c:86:27:80:9c:0e:c1:ad:7e:8c:f3:38:e1:88:0a:d5:c7:5d:
         57:4e:45:8f:18:e6:52:f1:b7:27:3b:4e:c5:cd:84:f5:e2:6f:
         ec:04:72:6a:10:70:44:b5:76:ad:ed:70:ab:a0:08:ae:14:6c:
         91:2e:30:67:72:31:62:0d:00:bc:79:81:ed:86:11:f8:f5:d4:
         5d:48:d7:b9:7d:99:8b:74:63:99:f8:58:18:1f:0f:9e:ff:1e:
         e2:cb:54:55
-----BEGIN CERTIFICATE-----
MIIEsDCCA5igAwIBAgICEAEwDQYJKoZIhvcNAQELBQAwXzELMAkGA1UEBhMCTUsx
EjAQBgNVBAgMCU1hY2Vkb25pYTEOMAwGA1UECgwFRklOS0kxLDAqBgNVBAMMI2Jv
cmNlLnZlbGtvdkBzdHVkZW50cy5maW5raS51a2ltLm1rMB4XDTE5MDEzMDE5Mzgy
OVoXDTIwMDIwOTE5MzgyOVowfzELMAkGA1UEBhMCTUsxEjAQBgNVBAgMCU1hY2Vk
b25pYTEOMAwGA1UECgwFRklOS0kxCzAJBgNVBAsMAkc3MQswCQYDVQQDDAJHNzEy
MDAGCSqGSIb3DQEJARYjYm9yY2UudmVsa292QHN0dWRlbnRzLmZpbmtpLnVraW0u
bWswggEiMA0GCSqGSIb3DQEBAQUAA4IBDwAwggEKAoIBAQCj+OhWZTFy157dc/zn
V25s51QJvDzFxv/ns0i2lE6RZXR1K2HbEPnxUm1E7EvcsZnA3ZYWfoGxr9q9Ygzn
cA0ExIxMYwAEG0mb/xVJT/LHrelYPBdByVVPsskw9zJ2WvY+hoDAQRqbtaP/7WmD
STmkql4jaxXEaIN8tszzMq8cqaNuNT9ks24nGyXajcMggoPGcRF0Dz/bfNulRqKw
zsX7zZ6RStUt6jPuz9bJJLF/k0tBudfuV7WncsoRXg05rg9859yv5OKD46oGvsGx
zy9hO1CaHdIHOeR8j17FNUhRYVyNCxYJZYekX+gSWpcixYGtdpKPIDxZ48nOMdpT
uoEdAgMBAAGjggFUMIIBUDAJBgNVHRMEAjAAMBEGCWCGSAGG+EIBAQQEAwIGQDAz
BglghkgBhvhCAQ0EJhYkT3BlblNTTCBHZW5lcmF0ZWQgU2VydmVyIENlcnRpZmlj
YXRlMB0GA1UdDgQWBBTxLLLBt6IZS0nS4wRvGXLN8Rp/vjCBoAYDVR0jBIGYMIGV
gBTgH3jDdHQFVXsrTd1jZmAOd4D7JaF5pHcwdTELMAkGA1UEBhMCTUsxEjAQBgNV
BAgMCU1hY2Vkb25pYTEOMAwGA1UECgwFRklOS0kxJDAiBgNVBAsMG0ZJTktJIENl
cnRpZmljYXRlIEF1dGhvcml0eTEcMBoGA1UEAwwTQk5LUyBJbnRlbWVkaWF0ZSBD
QYICEAEwDgYDVR0PAQH/BAQDAgWgMBMGA1UdJQQMMAoGCCsGAQUFBwMBMBQGA1Ud
EQQNMAuCCWxvY2FsaG9zdDANBgkqhkiG9w0BAQsFAAOCAQEAZFC3TiVRJ6CacaR4
693PbHztcczqrYs7aZkBrFaKzfJTebBYgv1QPQoUXlfNpuRYvoIJQXkaGboEB99i
562f9ID+62S0qZLhItCWSoyeAKCmbeLaNXFmJrl1sLaKxmRTeuyUKDxW8loyr517
hBjzMDMQFZLbKvnICjNvPxdL5NDY9eCR+wxS4//vDQEz51BJon4PrqTDt7wjrUBf
n0Zw56yZHIYngJwOwa1+jPM44YgK1cddV05FjxjmUvG3JztOxc2E9eJv7ARyahBw
RLV2re1wq6AIrhRskS4wZ3IxYg0AvHmB7YYR+PXUXUjXuX2Zi3RjmfhYGB8Pnv8e
4stUVQ==
-----END CERTIFICATE-----
